(lp0
cnumpy.core.multiarray
scalar
p1
(cnumpy
dtype
p2
(S'f8'
p3
I0
I1
tp4
Rp5
(I3
S'<'
p6
NNNI-1
I-1
I0
tp7
bS'\xcf\xf0&zD\x8e\xeb?'
p8
tp9
Rp10
a(dp11
S'max_features'
p12
I8
sS'n_estimators'
p13
I110
sS'min_samples_leaf'
p14
I10
sa.